Certificate:
    Data:
        Version: 3 (0x2)
        Serial Number: 1 (0x1)
    Signature Algorithm: sha256WithRSAEncryption
        Issuer: C=CH, ST=ZH, L=ZURICH, O=Luceatmail, OU=VPN, CN=Luceatmail CA/name=vpn.luceatmail.com/emailAddress=vpn@luceatmail.com
        Validity
            Not Before: May  8 08:39:25 2017 GMT
            Not After : May  6 08:39:25 2027 GMT
        Subject: C=CH, ST=ZH, L=ZURICH, O=Luceatmail, OU=VPN, CN=vpn.luceatmail.com/name=vpn.luceatmail.com/emailAddress=vpn@luceatmail.com
        Subject Public Key Info:
            Public Key Algorithm: rsaEncryption
                Public-Key: (4096 bit)
                Modulus:
                    00:ca:90:63:99:93:f6:a1:95:80:a0:c3:7b:3e:9f:
                    9f:75:6d:76:60:9b:92:e1:18:aa:1e:0a:bf:1e:f9:
                    30:d8:2d:0a:fd:8b:89:c8:80:89:e7:39:67:1f:cc:
                    38:86:6d:67:59:1c:68:46:33:fe:65:12:3b:ac:4d:
                    49:99:c3:7a:e5:f3:10:19:ba:b8:30:3e:a2:3a:19:
                    83:33:9a:54:7f:02:78:06:57:fc:2d:73:85:c7:aa:
                    94:f5:1b:1d:ab:aa:4e:f4:7d:ea:60:f0:4b:b3:f5:
                    b1:fa:25:83:cf:f7:ac:5c:6b:f1:0c:98:10:8e:8d:
                    26:25:b8:87:3b:55:8e:d5:22:b7:7f:41:72:dc:d9:
                    79:ec:45:3e:73:2e:1a:c7:70:06:f1:00:ec:e4:0b:
                    1c:f6:ca:af:f6:9c:ed:83:f9:41:df:f0:7b:5e:3e:
                    b0:d5:c9:d4:c1:5d:11:0e:f9:06:3e:07:2b:22:cf:
                    9e:81:e1:ef:ff:57:6d:81:86:22:c6:28:55:fa:bd:
                    d1:09:8a:27:f5:dd:7e:37:0a:fd:66:cf:d5:ee:c7:
                    a6:6f:29:31:a6:fc:dc:6f:ea:fb:a7:fa:5a:22:4b:
                    b6:e3:44:c4:ce:a1:50:b0:15:4b:c1:7b:22:b1:bb:
                    e8:c3:6b:55:ae:3c:a4:2d:79:08:21:fd:10:bd:29:
                    2c:c7:6f:2f:87:77:a5:ac:e3:32:25:02:bc:f6:ce:
                    7d:41:0b:68:8b:30:74:8f:39:9b:59:cd:00:35:c8:
                    9e:12:c0:14:dc:cd:9a:17:99:9d:30:15:44:b1:3c:
                    24:33:bb:2a:77:4e:4f:4d:7a:78:4d:b7:a4:8e:5e:
                    46:88:e6:a8:05:bd:19:1e:68:9b:80:a2:61:b1:55:
                    fd:fe:5d:c8:4b:dd:c7:7c:bb:b4:72:61:8d:95:8b:
                    a0:01:fa:9b:aa:de:b5:c5:43:09:a6:af:51:10:29:
                    c9:a4:14:64:71:d6:b8:ba:05:16:81:1d:41:92:e6:
                    59:2e:bf:18:06:94:4f:d2:d7:e6:b9:e1:16:29:d1:
                    c1:56:29:99:5c:8b:01:6c:f2:b1:f0:18:12:e6:41:
                    f6:5d:4c:eb:25:c0:30:e3:3f:0d:b4:d1:d3:7f:59:
                    4a:e9:92:7c:b1:5d:8b:df:bc:ca:2a:73:c6:37:4d:
                    eb:e1:45:ca:f7:4d:db:6b:12:a1:9a:ba:5f:59:1c:
                    1f:73:04:f0:e0:fc:c8:65:37:d4:60:bc:54:d6:73:
                    5e:55:10:79:15:75:7f:39:b5:54:8c:f2:d2:ee:c5:
                    5a:82:b3:66:a7:ef:da:e9:39:d9:8a:56:3c:72:be:
                    a2:e2:b6:20:2f:f6:6d:e7:a7:46:9e:26:01:24:b7:
                    19:b3:c5
                Exponent: 65537 (0x10001)
        X509v3 extensions:
            X509v3 Basic Constraints: 
                CA:FALSE
            Netscape Cert Type: 
                SSL Server
            Netscape Comment: 
                Easy-RSA Generated Server Certificate
            X509v3 Subject Key Identifier: 
                12:5D:42:48:A4:49:F5:33:82:8F:72:7D:26:65:78:0E:E1:18:15:07
            X509v3 Authority Key Identifier: 
                keyid:AF:89:B6:B9:72:26:21:3E:CA:B5:98:F7:DB:E7:D1:02:8A:23:D1:A4
                DirName:/C=CH/ST=ZH/L=ZURICH/O=Luceatmail/OU=VPN/CN=Luceatmail CA/name=vpn.luceatmail.com/emailAddress=vpn@luceatmail.com
                serial:EF:5A:90:14:00:BF:EB:42

            X509v3 Extended Key Usage: 
                TLS Web Server Authentication
            X509v3 Key Usage: 
                Digital Signature, Key Encipherment
            X509v3 Subject Alternative Name: 
                DNS:vpn.luceatmail.com
    Signature Algorithm: sha256WithRSAEncryption
         07:f6:5f:5b:0e:eb:05:89:c8:53:dd:ef:f4:ff:70:16:92:e8:
         12:e0:5a:71:d2:63:d7:1a:39:ec:38:12:4b:3f:52:7d:ba:db:
         e3:3d:92:ce:17:5c:f4:0a:ce:e8:39:61:69:e4:15:f7:bd:e4:
         cd:fc:ff:b4:ac:af:d4:e0:65:d0:7e:19:cd:99:ab:b8:85:ff:
         1c:59:90:a4:99:1a:26:93:7f:1d:21:db:ae:99:b1:ed:7e:89:
         96:65:c5:14:7b:46:13:96:12:00:28:d1:53:f8:01:3d:04:49:
         12:b8:20:6d:43:97:f2:f0:31:9e:b1:fb:0a:b0:f0:3e:2d:13:
         b6:57:5d:c3:40:e1:a1:7a:5e:55:ee:93:50:1e:b3:a3:6a:7a:
         4b:64:67:47:ba:6e:c1:ee:1b:9a:f8:2b:fc:8f:3d:04:07:c0:
         13:8d:38:51:fc:da:94:a5:2d:15:6b:7c:11:2a:33:76:d2:90:
         1e:60:e3:38:4a:b5:90:3d:db:c9:40:7c:b7:95:fc:24:b3:cc:
         27:eb:05:e9:cd:b3:e0:52:eb:f9:a3:b1:af:96:bc:5e:78:86:
         99:a7:51:3c:91:a4:97:2c:e2:9e:9e:48:79:c6:9a:1a:48:8a:
         71:b8:f4:2a:6f:b0:f4:19:0d:92:88:57:b5:45:b1:de:72:af:
         8f:6c:e9:dd:d9:df:ad:9b:b8:d2:ad:19:42:4e:51:b2:c8:19:
         4a:43:76:bf:73:31:e7:60:a2:06:66:74:d3:c3:0b:64:be:33:
         90:02:9d:cf:08:0a:01:58:c6:af:62:34:e5:32:1c:15:b9:11:
         63:86:ec:08:4a:43:b8:38:63:83:e5:7d:8c:bc:ac:e9:7e:47:
         e2:65:78:46:64:8c:fb:62:3f:52:ea:f3:fd:bf:4d:73:0b:9c:
         49:52:dd:e6:aa:99:8b:14:8b:ba:e4:34:2c:a9:e8:2b:9d:98:
         c9:a7:cd:80:b5:92:e6:ab:47:d2:0e:55:ef:5f:69:29:e5:a7:
         db:f2:a7:0a:8a:6d:73:60:d2:57:90:35:cf:05:b5:a8:3b:3e:
         5e:f5:03:13:b6:50:9c:4c:e7:dd:fe:72:35:af:d4:5c:9e:ab:
         36:91:f0:cd:b7:a5:3a:17:41:ae:d1:0d:4d:11:a5:70:5d:24:
         fe:2f:a3:f0:fe:a8:af:e8:4e:54:48:43:76:95:01:97:ff:3f:
         b6:49:57:b5:43:d4:7a:37:af:65:19:a6:75:57:6f:f3:d2:d4:
         b7:fe:c5:6e:ae:ff:37:33:79:bc:be:3b:84:a5:ac:db:89:c8:
         b5:54:2e:e3:01:99:d1:29:86:43:26:83:f0:ae:bc:92:dd:06:
         4d:87:59:77:82:a4:f9:a1
-----BEGIN CERTIFICATE-----
MIIHZjCCBU6gAwIBAgIBATANBgkqhkiG9w0BAQsFADCBpjELMAkGA1UEBhMCQ0gx
CzAJBgNVBAgTAlpIMQ8wDQYDVQQHEwZaVVJJQ0gxEzARBgNVBAoTCkx1Y2VhdG1h
aWwxDDAKBgNVBAsTA1ZQTjEWMBQGA1UEAxMNTHVjZWF0bWFpbCBDQTEbMBkGA1UE
KRMSdnBuLmx1Y2VhdG1haWwuY29tMSEwHwYJKoZIhvcNAQkBFhJ2cG5AbHVjZWF0
bWFpbC5jb20wHhcNMTcwNTA4MDgzOTI1WhcNMjcwNTA2MDgzOTI1WjCBqzELMAkG
A1UEBhMCQ0gxCzAJBgNVBAgTAlpIMQ8wDQYDVQQHEwZaVVJJQ0gxEzARBgNVBAoT
Ckx1Y2VhdG1haWwxDDAKBgNVBAsTA1ZQTjEbMBkGA1UEAxMSdnBuLmx1Y2VhdG1h
aWwuY29tMRswGQYDVQQpExJ2cG4ubHVjZWF0bWFpbC5jb20xITAfBgkqhkiG9w0B
CQEWEnZwbkBsdWNlYXRtYWlsLmNvbTCCAiIwDQYJKoZIhvcNAQEBBQADggIPADCC
AgoCggIBAMqQY5mT9qGVgKDDez6fn3VtdmCbkuEYqh4Kvx75MNgtCv2LiciAiec5
Zx/MOIZtZ1kcaEYz/mUSO6xNSZnDeuXzEBm6uDA+ojoZgzOaVH8CeAZX/C1zhceq
lPUbHauqTvR96mDwS7P1sfolg8/3rFxr8QyYEI6NJiW4hztVjtUit39BctzZeexF
PnMuGsdwBvEA7OQLHPbKr/ac7YP5Qd/we14+sNXJ1MFdEQ75Bj4HKyLPnoHh7/9X
bYGGIsYoVfq90QmKJ/XdfjcK/WbP1e7Hpm8pMab83G/q+6f6WiJLtuNExM6hULAV
S8F7IrG76MNrVa48pC15CCH9EL0pLMdvL4d3pazjMiUCvPbOfUELaIswdI85m1nN
ADXInhLAFNzNmheZnTAVRLE8JDO7KndOT016eE23pI5eRojmqAW9GR5om4CiYbFV
/f5dyEvdx3y7tHJhjZWLoAH6m6retcVDCaavURApyaQUZHHWuLoFFoEdQZLmWS6/
GAaUT9LX5rnhFinRwVYpmVyLAWzysfAYEuZB9l1M6yXAMOM/DbTR039ZSumSfLFd
i9+8yipzxjdN6+FFyvdN22sSoZq6X1kcH3ME8OD8yGU31GC8VNZzXlUQeRV1fzm1
VIzy0u7FWoKzZqfv2uk52YpWPHK+ouK2IC/2beenRp4mASS3GbPFAgMBAAGjggGW
MIIBkjAJBgNVHRMEAjAAMBEGCWCGSAGG+EIBAQQEAwIGQDA0BglghkgBhvhCAQ0E
JxYlRWFzeS1SU0EgR2VuZXJhdGVkIFNlcnZlciBDZXJ0aWZpY2F0ZTAdBgNVHQ4E
FgQUEl1CSKRJ9TOCj3J9JmV4DuEYFQcwgdsGA1UdIwSB0zCB0IAUr4m2uXImIT7K
tZj32+fRAooj0aShgaykgakwgaYxCzAJBgNVBAYTAkNIMQswCQYDVQQIEwJaSDEP
MA0GA1UEBxMGWlVSSUNIMRMwEQYDVQQKEwpMdWNlYXRtYWlsMQwwCgYDVQQLEwNW
UE4xFjAUBgNVBAMTDUx1Y2VhdG1haWwgQ0ExGzAZBgNVBCkTEnZwbi5sdWNlYXRt
YWlsLmNvbTEhMB8GCSqGSIb3DQEJARYSdnBuQGx1Y2VhdG1haWwuY29tggkA71qQ
FAC/60IwEwYDVR0lBAwwCgYIKwYBBQUHAwEwCwYDVR0PBAQDAgWgMB0GA1UdEQQW
MBSCEnZwbi5sdWNlYXRtYWlsLmNvbTANBgkqhkiG9w0BAQsFAAOCAgEAB/ZfWw7r
BYnIU93v9P9wFpLoEuBacdJj1xo57DgSSz9Sfbrb4z2Szhdc9ArO6DlhaeQV973k
zfz/tKyv1OBl0H4ZzZmruIX/HFmQpJkaJpN/HSHbrpmx7X6JlmXFFHtGE5YSACjR
U/gBPQRJErggbUOX8vAxnrH7CrDwPi0Ttlddw0DhoXpeVe6TUB6zo2p6S2RnR7pu
we4bmvgr/I89BAfAE404UfzalKUtFWt8ESozdtKQHmDjOEq1kD3byUB8t5X8JLPM
J+sF6c2z4FLr+aOxr5a8XniGmadRPJGklyzinp5IecaaGkiKcbj0Km+w9BkNkohX
tUWx3nKvj2zp3dnfrZu40q0ZQk5RssgZSkN2v3Mx52CiBmZ008MLZL4zkAKdzwgK
AVjGr2I05TIcFbkRY4bsCEpDuDhjg+V9jLys6X5H4mV4RmSM+2I/Uurz/b9Ncwuc
SVLd5qqZixSLuuQ0LKnoK52YyafNgLWS5qtH0g5V719pKeWn2/KnCoptc2DSV5A1
zwW1qDs+XvUDE7ZQnEzn3f5yNa/UXJ6rNpHwzbelOhdBrtENTRGlcF0k/i+j8P6o
r+hOVEhDdpUBl/8/tklXtUPUejevZRmmdVdv89LUt/7Fbq7/NzN5vL47hKWs24nI
tVQu4wGZ0SmGQyaD8K68kt0GTYdZd4Kk+aE=
-----END CERTIFICATE-----
